; Function Attrs: nounwind uwtable
define internal i32 @dissect_bluetooth_usb(ptr noundef %0, ptr noundef initializes((280, 284)) %1, ptr noundef %2, ptr noundef %3) #1 {
  %5 = tail call ptr @dissect_bluetooth_common(ptr noundef %0, ptr noundef %1, ptr noundef %2)
  %6 = getelementptr inbounds nuw i8, ptr %5, i64 88
  store i32 3, ptr %6, align 8
  %7 = getelementptr inbounds nuw i8, ptr %5, i64 96
  store ptr %3, ptr %7, align 8
  %8 = load ptr, ptr @hci_usb_handle, align 8
  %9 = tail call i32 @call_dissector_with_data(ptr noundef %8, ptr noundef %0, ptr noundef %1, ptr noundef %2, ptr noundef %5) #9
  ret i32 %9
}